target datalayout = "e-m:e-p270:32:32-p271:32:32-p272:64:64-i64:64-i128:128-f80:128-n8:16:32:64-S128"
target triple = "x86_64-unknown-linux-gnu"

%"class.proxygen::ResponseHandler" = type { ptr, ptr, ptr }

@_ZN8proxygen21RequestHandlerAdaptorC1EPNS_14RequestHandlerE = unnamed_addr alias void (ptr, ptr), ptr @_ZN8proxygen21RequestHandlerAdaptorC2EPNS_14RequestHandlerE

; Function Attrs: mustprogress nounwind uwtable
define void @_ZN8proxygen21RequestHandlerAdaptor15onExTransactionEPNS_15HTTPTransactionE(ptr noundef nonnull align 8 dereferenceable(36) %this, ptr noundef %txn) unnamed_addr #5 align 2 personality ptr @__gxx_personality_v0 {
entry:
  %this.addr = alloca ptr, align 8
  %txn.addr = alloca ptr, align 8
  %handler = alloca ptr, align 8
  store ptr %this, ptr %this.addr, align 8
  store ptr %txn, ptr %txn.addr, align 8
  %this1 = load ptr, ptr %this.addr, align 8
  %add.ptr = getelementptr inbounds i8, ptr %this1, i64 8
  %upstream_ = getelementptr inbounds %"class.proxygen::ResponseHandler", ptr %add.ptr, i32 0, i32 1
  %0 = load ptr, ptr %upstream_, align 8
  %tobool = icmp ne ptr %0, null
  br i1 %tobool, label %if.end, label %if.then

if.then:                                          ; preds = %entry
  br label %invoke.cont8

if.end:                                           ; preds = %entry
  %call = invoke noalias noundef nonnull ptr @_Znwm(i64 noundef 40) #20
          to label %invoke.cont unwind label %terminate.lpad

invoke.cont:                                      ; preds = %if.end
  %add.ptr2 = getelementptr inbounds i8, ptr %this1, i64 8
  %upstream_3 = getelementptr inbounds %"class.proxygen::ResponseHandler", ptr %add.ptr2, i32 0, i32 1
  %1 = load ptr, ptr %upstream_3, align 8
  %vtable = load ptr, ptr %1, align 8
  %vfn = getelementptr inbounds ptr, ptr %vtable, i64 11
  %2 = load ptr, ptr %vfn, align 8
  %call4 = call noundef ptr %2(ptr noundef nonnull align 8 dereferenceable(16) %1) #3
  invoke void @_ZN8proxygen21RequestHandlerAdaptorC1EPNS_14RequestHandlerE(ptr noundef nonnull align 8 dereferenceable(36) %call, ptr noundef %call4)
          to label %invoke.cont5 unwind label %terminate.lpad

invoke.cont5:                                     ; preds = %invoke.cont
  store ptr %call, ptr %handler, align 8
  %3 = load ptr, ptr %txn.addr, align 8
  %4 = load ptr, ptr %handler, align 8
  %vtable6 = load ptr, ptr %3, align 8
  %vfn7 = getelementptr inbounds ptr, ptr %vtable6, i64 4
  %5 = load ptr, ptr %vfn7, align 8
  invoke void %5(ptr noundef nonnull align 8 dereferenceable(912) %3, ptr noundef %4)
          to label %invoke.cont8 unwind label %terminate.lpad

invoke.cont8:                                     ; preds = %invoke.cont5, %if.then
  ret void

terminate.lpad:                                   ; preds = %invoke.cont5, %invoke.cont, %if.end
  %6 = landingpad { ptr, i32 }
          catch ptr null
  %7 = extractvalue { ptr, i32 } %6, 0
  call void @__clang_call_terminate(ptr %7) #18
  unreachable
}