; Function Attrs: mustprogress nounwind uwtable
define void @_ZN8proxygen21RequestHandlerAdaptor15onExTransactionEPNS_15HTTPTransactionE(ptr nocapture noundef nonnull readonly align 8 dereferenceable(36) %this, ptr noundef %txn) unnamed_addr #4 align 2 personality ptr @__gxx_personality_v0 {
entry:
  %upstream_ = getelementptr inbounds i8, ptr %this, i64 16
  %0 = load ptr, ptr %upstream_, align 8
  %tobool.not = icmp eq ptr %0, null
  br i1 %tobool.not, label %invoke.cont8, label %if.end

if.end:                                           ; preds = %entry
  %call = invoke noalias noundef nonnull dereferenceable(40) ptr @_Znwm(i64 noundef 40) #23
          to label %invoke.cont unwind label %terminate.lpad

invoke.cont:                                      ; preds = %if.end
  %vtable = load ptr, ptr %0, align 8
  %vfn = getelementptr inbounds i8, ptr %vtable, i64 88
  %1 = load ptr, ptr %vfn, align 8
  %call4 = tail call noundef ptr %1(ptr noundef nonnull align 8 dereferenceable(16) %0) #19
  invoke void @_ZN8proxygen21RequestHandlerAdaptorC1EPNS_14RequestHandlerE(ptr noundef nonnull align 8 dereferenceable(36) %call, ptr noundef %call4)
          to label %invoke.cont5 unwind label %terminate.lpad

invoke.cont5:                                     ; preds = %invoke.cont
  %vtable6 = load ptr, ptr %txn, align 8
  %vfn7 = getelementptr inbounds i8, ptr %vtable6, i64 32
  %2 = load ptr, ptr %vfn7, align 8
  invoke void %2(ptr noundef nonnull align 8 dereferenceable(912) %txn, ptr noundef nonnull %call)
          to label %invoke.cont8 unwind label %terminate.lpad

invoke.cont8:                                     ; preds = %entry, %invoke.cont5
  ret void

terminate.lpad:                                   ; preds = %invoke.cont5, %invoke.cont, %if.end
  %3 = landingpad { ptr, i32 }
          catch ptr null
  %4 = extractvalue { ptr, i32 } %3, 0
  tail call void @__clang_call_terminate(ptr %4) #22
  unreachable
}